target datalayout = "e-m:e-p270:32:32-p271:32:32-p272:64:64-i64:64-i128:128-f80:128-n8:16:32:64-S128"
target triple = "x86_64-pc-linux-gnu"

%struct._zval_struct = type { %union._zend_value, %union.anon, %union.anon.2 }
%union._zend_value = type { i64 }
%union.anon = type { i32 }
%union.anon.2 = type { i32 }
%struct._zend_array = type { %struct._zend_refcounted_h, %union.anon.4, i32, %union.anon.6, i32, i32, i32, i32, i64, ptr }
%struct._zend_refcounted_h = type { i32, %union.anon.3 }
%union.anon.3 = type { i32 }
%union.anon.4 = type { i32 }
%union.anon.6 = type { ptr }
%struct.php_sxe_object = type { ptr, ptr, ptr, ptr, %struct.anon.8, %struct._zval_struct, ptr, %struct._zend_object }
%struct.anon.8 = type { ptr, ptr, i32, i32, %struct._zval_struct }
%struct._zend_object = type { %struct._zend_refcounted_h, i32, ptr, ptr, ptr, [1 x %struct._zval_struct] }
%struct._php_libxml_node_ptr = type { ptr, i32, ptr }
%struct._php_libxml_ref_obj = type { ptr, ptr, %struct.php_libxml_cache_tag, i32, i8 }
%struct.php_libxml_cache_tag = type { i64 }
%struct._xmlNode = type { ptr, i32, ptr, ptr, ptr, ptr, ptr, ptr, ptr, ptr, ptr, ptr, ptr, ptr, i16, i16 }
%struct._zend_class_entry = type { i8, ptr, %union.anon.9, i32, i32, i32, i32, ptr, ptr, ptr, %struct._zend_array, %struct._zend_array, %struct._zend_array, ptr, ptr, ptr, ptr, ptr, ptr, ptr, ptr, ptr, ptr, ptr, ptr, ptr, ptr, ptr, ptr, ptr, ptr, ptr, %union.anon.10, ptr, ptr, ptr, ptr, i32, i32, %union.anon.11, ptr, ptr, ptr, ptr, i32, ptr, ptr, %union.anon.12 }
%union.anon.9 = type { ptr }
%union.anon.10 = type { ptr }
%union.anon.11 = type { ptr }
%union.anon.12 = type { %struct.anon.13 }
%struct.anon.13 = type { ptr, i32, i32 }

; Function Attrs: nounwind uwtable
define internal ptr @php_sxe_object_new(ptr noundef %0, ptr noundef %1) #0 {
  %3 = alloca ptr, align 8
  %4 = alloca i64, align 8
  %5 = alloca ptr, align 8
  %6 = alloca ptr, align 8
  %7 = alloca ptr, align 8
  %8 = alloca ptr, align 8
  %9 = alloca ptr, align 8
  store ptr %0, ptr %7, align 8
  store ptr %1, ptr %8, align 8
  %10 = load ptr, ptr %7, align 8
  store i64 152, ptr %4, align 8
  store ptr %10, ptr %5, align 8
  %11 = load i64, ptr %4, align 8
  %12 = load ptr, ptr %5, align 8
  store ptr %12, ptr %3, align 8
  %13 = load ptr, ptr %3, align 8
  %14 = getelementptr inbounds %struct._zend_class_entry, ptr %13, i32 0, i32 5
  %15 = load i32, ptr %14, align 8
  %16 = load ptr, ptr %3, align 8
  %17 = getelementptr inbounds %struct._zend_class_entry, ptr %16, i32 0, i32 4
  %18 = load i32, ptr %17, align 4
  %19 = and i32 %18, 2048
  %20 = icmp ne i32 %19, 0
  %21 = select i1 %20, i32 0, i32 1
  %22 = sub nsw i32 %15, %21
  %23 = sext i32 %22 to i64
  %24 = mul i64 16, %23
  %25 = add i64 %11, %24
  %26 = call noalias ptr @_emalloc(i64 noundef %25) #10
  store ptr %26, ptr %6, align 8
  %27 = load ptr, ptr %6, align 8
  %28 = load i64, ptr %4, align 8
  %29 = sub i64 %28, 56
  call void @llvm.memset.p0.i64(ptr align 1 %27, i8 0, i64 %29, i1 false)
  %30 = load ptr, ptr %6, align 8
  store ptr %30, ptr %9, align 8
  %31 = load ptr, ptr %9, align 8
  %32 = getelementptr inbounds %struct.php_sxe_object, ptr %31, i32 0, i32 4
  %33 = getelementptr inbounds %struct.anon.8, ptr %32, i32 0, i32 3
  store i32 0, ptr %33, align 4
  %34 = load ptr, ptr %9, align 8
  %35 = getelementptr inbounds %struct.php_sxe_object, ptr %34, i32 0, i32 4
  %36 = getelementptr inbounds %struct.anon.8, ptr %35, i32 0, i32 1
  store ptr null, ptr %36, align 8
  %37 = load ptr, ptr %9, align 8
  %38 = getelementptr inbounds %struct.php_sxe_object, ptr %37, i32 0, i32 4
  %39 = getelementptr inbounds %struct.anon.8, ptr %38, i32 0, i32 0
  store ptr null, ptr %39, align 8
  %40 = load ptr, ptr %8, align 8
  %41 = load ptr, ptr %9, align 8
  %42 = getelementptr inbounds %struct.php_sxe_object, ptr %41, i32 0, i32 6
  store ptr %40, ptr %42, align 8
  %43 = load ptr, ptr %9, align 8
  %44 = getelementptr inbounds %struct.php_sxe_object, ptr %43, i32 0, i32 7
  %45 = load ptr, ptr %7, align 8
  call void @zend_object_std_init(ptr noundef %44, ptr noundef %45)
  %46 = load ptr, ptr %9, align 8
  %47 = getelementptr inbounds %struct.php_sxe_object, ptr %46, i32 0, i32 7
  %48 = load ptr, ptr %7, align 8
  call void @object_properties_init(ptr noundef %47, ptr noundef %48)
  %49 = load ptr, ptr %9, align 8
  ret ptr %49
}

; Function Attrs: nounwind uwtable
define internal ptr @php_sxe_fetch_object(ptr noundef %0) #0 {
  %2 = alloca ptr, align 8
  store ptr %0, ptr %2, align 8
  %3 = load ptr, ptr %2, align 8
  %4 = getelementptr inbounds i8, ptr %3, i64 -96
  ret ptr %4
}

; Function Attrs: nounwind uwtable
define internal ptr @sxe_object_clone(ptr noundef %0) #0 {
  %2 = alloca ptr, align 8
  %3 = alloca ptr, align 8
  %4 = alloca ptr, align 8
  %5 = alloca ptr, align 8
  %6 = alloca ptr, align 8
  %7 = alloca i8, align 1
  store ptr %0, ptr %2, align 8
  %8 = load ptr, ptr %2, align 8
  %9 = call ptr @php_sxe_fetch_object(ptr noundef %8)
  store ptr %9, ptr %3, align 8
  store ptr null, ptr %5, align 8
  store ptr null, ptr %6, align 8
  %10 = load ptr, ptr %3, align 8
  %11 = getelementptr inbounds %struct.php_sxe_object, ptr %10, i32 0, i32 0
  %12 = load ptr, ptr %11, align 8
  %13 = icmp ne ptr %12, null
  br i1 %13, label %14, label %54

14:                                               ; preds = %1
  %15 = load ptr, ptr %3, align 8
  %16 = getelementptr inbounds %struct.php_sxe_object, ptr %15, i32 0, i32 0
  %17 = load ptr, ptr %16, align 8
  %18 = getelementptr inbounds %struct._php_libxml_node_ptr, ptr %17, i32 0, i32 0
  %19 = load ptr, ptr %18, align 8
  %20 = icmp ne ptr %19, null
  br i1 %20, label %21, label %54

21:                                               ; preds = %14
  %22 = load ptr, ptr %3, align 8
  %23 = getelementptr inbounds %struct.php_sxe_object, ptr %22, i32 0, i32 0
  %24 = load ptr, ptr %23, align 8
  %25 = getelementptr inbounds %struct._php_libxml_node_ptr, ptr %24, i32 0, i32 0
  %26 = load ptr, ptr %25, align 8
  %27 = getelementptr inbounds %struct._xmlNode, ptr %26, i32 0, i32 5
  %28 = load ptr, ptr %27, align 8
  %29 = icmp ne ptr %28, null
  br i1 %29, label %30, label %54

30:                                               ; preds = %21
  %31 = load ptr, ptr %3, align 8
  %32 = getelementptr inbounds %struct.php_sxe_object, ptr %31, i32 0, i32 0
  %33 = load ptr, ptr %32, align 8
  %34 = getelementptr inbounds %struct._php_libxml_node_ptr, ptr %33, i32 0, i32 0
  %35 = load ptr, ptr %34, align 8
  %36 = getelementptr inbounds %struct._xmlNode, ptr %35, i32 0, i32 5
  %37 = load ptr, ptr %36, align 8
  %38 = getelementptr inbounds %struct._xmlNode, ptr %37, i32 0, i32 1
  %39 = load i32, ptr %38, align 8
  %40 = icmp eq i32 %39, 9
  br i1 %40, label %52, label %41

41:                                               ; preds = %30
  %42 = load ptr, ptr %3, align 8
  %43 = getelementptr inbounds %struct.php_sxe_object, ptr %42, i32 0, i32 0
  %44 = load ptr, ptr %43, align 8
  %45 = getelementptr inbounds %struct._php_libxml_node_ptr, ptr %44, i32 0, i32 0
  %46 = load ptr, ptr %45, align 8
  %47 = getelementptr inbounds %struct._xmlNode, ptr %46, i32 0, i32 5
  %48 = load ptr, ptr %47, align 8
  %49 = getelementptr inbounds %struct._xmlNode, ptr %48, i32 0, i32 1
  %50 = load i32, ptr %49, align 8
  %51 = icmp eq i32 %50, 13
  br label %52

52:                                               ; preds = %41, %30
  %53 = phi i1 [ true, %30 ], [ %51, %41 ]
  br label %54

54:                                               ; preds = %52, %21, %14, %1
  %55 = phi i1 [ false, %21 ], [ false, %14 ], [ false, %1 ], [ %53, %52 ]
  %56 = zext i1 %55 to i8
  store i8 %56, ptr %7, align 1
  %57 = load ptr, ptr %3, align 8
  %58 = getelementptr inbounds %struct.php_sxe_object, ptr %57, i32 0, i32 7
  %59 = getelementptr inbounds %struct._zend_object, ptr %58, i32 0, i32 2
  %60 = load ptr, ptr %59, align 8
  %61 = load ptr, ptr %3, align 8
  %62 = getelementptr inbounds %struct.php_sxe_object, ptr %61, i32 0, i32 6
  %63 = load ptr, ptr %62, align 8
  %64 = call ptr @php_sxe_object_new(ptr noundef %60, ptr noundef %63)
  store ptr %64, ptr %4, align 8
  %65 = load i8, ptr %7, align 1
  %66 = trunc i8 %65 to i1
  br i1 %66, label %67, label %77

67:                                               ; preds = %54
  %68 = load ptr, ptr %3, align 8
  %69 = getelementptr inbounds %struct.php_sxe_object, ptr %68, i32 0, i32 1
  %70 = load ptr, ptr %69, align 8
  %71 = getelementptr inbounds %struct._php_libxml_ref_obj, ptr %70, i32 0, i32 0
  %72 = load ptr, ptr %71, align 8
  %73 = call ptr @xmlCopyDoc(ptr noundef %72, i32 noundef 1)
  store ptr %73, ptr %6, align 8
  %74 = load ptr, ptr %4, align 8
  %75 = load ptr, ptr %6, align 8
  %76 = call i32 @php_libxml_increment_doc_ref(ptr noundef %74, ptr noundef %75)
  br label %100

77:                                               ; preds = %54
  %78 = load ptr, ptr %3, align 8
  %79 = getelementptr inbounds %struct.php_sxe_object, ptr %78, i32 0, i32 1
  %80 = load ptr, ptr %79, align 8
  %81 = load ptr, ptr %4, align 8
  %82 = getelementptr inbounds %struct.php_sxe_object, ptr %81, i32 0, i32 1
  store ptr %80, ptr %82, align 8
  %83 = load ptr, ptr %4, align 8
  %84 = getelementptr inbounds %struct.php_sxe_object, ptr %83, i32 0, i32 1
  %85 = load ptr, ptr %84, align 8
  %86 = icmp ne ptr %85, null
  br i1 %86, label %87, label %99

87:                                               ; preds = %77
  %88 = load ptr, ptr %4, align 8
  %89 = getelementptr inbounds %struct.php_sxe_object, ptr %88, i32 0, i32 1
  %90 = load ptr, ptr %89, align 8
  %91 = getelementptr inbounds %struct._php_libxml_ref_obj, ptr %90, i32 0, i32 3
  %92 = load i32, ptr %91, align 8
  %93 = add nsw i32 %92, 1
  store i32 %93, ptr %91, align 8
  %94 = load ptr, ptr %4, align 8
  %95 = getelementptr inbounds %struct.php_sxe_object, ptr %94, i32 0, i32 1
  %96 = load ptr, ptr %95, align 8
  %97 = getelementptr inbounds %struct._php_libxml_ref_obj, ptr %96, i32 0, i32 0
  %98 = load ptr, ptr %97, align 8
  store ptr %98, ptr %6, align 8
  br label %99

99:                                               ; preds = %87, %77
  br label %100

100:                                              ; preds = %99, %67
  %101 = load ptr, ptr %3, align 8
  %102 = getelementptr inbounds %struct.php_sxe_object, ptr %101, i32 0, i32 4
  %103 = getelementptr inbounds %struct.anon.8, ptr %102, i32 0, i32 2
  %104 = load i32, ptr %103, align 8
  %105 = load ptr, ptr %4, align 8
  %106 = getelementptr inbounds %struct.php_sxe_object, ptr %105, i32 0, i32 4
  %107 = getelementptr inbounds %struct.anon.8, ptr %106, i32 0, i32 2
  store i32 %104, ptr %107, align 8
  %108 = load ptr, ptr %3, align 8
  %109 = getelementptr inbounds %struct.php_sxe_object, ptr %108, i32 0, i32 4
  %110 = getelementptr inbounds %struct.anon.8, ptr %109, i32 0, i32 0
  %111 = load ptr, ptr %110, align 8
  %112 = icmp ne ptr %111, null
  br i1 %112, label %113, label %122

113:                                              ; preds = %100
  %114 = load ptr, ptr %3, align 8
  %115 = getelementptr inbounds %struct.php_sxe_object, ptr %114, i32 0, i32 4
  %116 = getelementptr inbounds %struct.anon.8, ptr %115, i32 0, i32 0
  %117 = load ptr, ptr %116, align 8
  %118 = call noalias ptr @_estrdup(ptr noundef %117)
  %119 = load ptr, ptr %4, align 8
  %120 = getelementptr inbounds %struct.php_sxe_object, ptr %119, i32 0, i32 4
  %121 = getelementptr inbounds %struct.anon.8, ptr %120, i32 0, i32 0
  store ptr %118, ptr %121, align 8
  br label %122

122:                                              ; preds = %113, %100
  %123 = load ptr, ptr %3, align 8
  %124 = getelementptr inbounds %struct.php_sxe_object, ptr %123, i32 0, i32 4
  %125 = getelementptr inbounds %struct.anon.8, ptr %124, i32 0, i32 1
  %126 = load ptr, ptr %125, align 8
  %127 = icmp ne ptr %126, null
  br i1 %127, label %128, label %137

128:                                              ; preds = %122
  %129 = load ptr, ptr %3, align 8
  %130 = getelementptr inbounds %struct.php_sxe_object, ptr %129, i32 0, i32 4
  %131 = getelementptr inbounds %struct.anon.8, ptr %130, i32 0, i32 1
  %132 = load ptr, ptr %131, align 8
  %133 = call noalias ptr @_estrdup(ptr noundef %132)
  %134 = load ptr, ptr %4, align 8
  %135 = getelementptr inbounds %struct.php_sxe_object, ptr %134, i32 0, i32 4
  %136 = getelementptr inbounds %struct.anon.8, ptr %135, i32 0, i32 1
  store ptr %133, ptr %136, align 8
  br label %137

137:                                              ; preds = %128, %122
  %138 = load ptr, ptr %3, align 8
  %139 = getelementptr inbounds %struct.php_sxe_object, ptr %138, i32 0, i32 4
  %140 = getelementptr inbounds %struct.anon.8, ptr %139, i32 0, i32 3
  %141 = load i32, ptr %140, align 4
  %142 = load ptr, ptr %4, align 8
  %143 = getelementptr inbounds %struct.php_sxe_object, ptr %142, i32 0, i32 4
  %144 = getelementptr inbounds %struct.anon.8, ptr %143, i32 0, i32 3
  store i32 %141, ptr %144, align 4
  %145 = load ptr, ptr %3, align 8
  %146 = getelementptr inbounds %struct.php_sxe_object, ptr %145, i32 0, i32 0
  %147 = load ptr, ptr %146, align 8
  %148 = icmp ne ptr %147, null
  br i1 %148, label %149, label %164

149:                                              ; preds = %137
  %150 = load i8, ptr %7, align 1
  %151 = trunc i8 %150 to i1
  br i1 %151, label %152, label %155

152:                                              ; preds = %149
  %153 = load ptr, ptr %6, align 8
  %154 = call ptr @xmlDocGetRootElement(ptr noundef %153)
  store ptr %154, ptr %5, align 8
  br label %163

155:                                              ; preds = %149
  %156 = load ptr, ptr %3, align 8
  %157 = getelementptr inbounds %struct.php_sxe_object, ptr %156, i32 0, i32 0
  %158 = load ptr, ptr %157, align 8
  %159 = getelementptr inbounds %struct._php_libxml_node_ptr, ptr %158, i32 0, i32 0
  %160 = load ptr, ptr %159, align 8
  %161 = load ptr, ptr %6, align 8
  %162 = call ptr @xmlDocCopyNode(ptr noundef %160, ptr noundef %161, i32 noundef 1)
  store ptr %162, ptr %5, align 8
  br label %163

163:                                              ; preds = %155, %152
  br label %164

164:                                              ; preds = %163, %137
  %165 = load ptr, ptr %4, align 8
  %166 = load ptr, ptr %5, align 8
  %167 = call i32 @php_libxml_increment_node_ptr(ptr noundef %165, ptr noundef %166, ptr noundef null)
  %168 = load ptr, ptr %4, align 8
  %169 = getelementptr inbounds %struct.php_sxe_object, ptr %168, i32 0, i32 7
  ret ptr %169
}