; Function Attrs: nounwind uwtable
define internal noundef nonnull ptr @sxe_object_clone(ptr nocapture noundef readonly %0) #1 {
  %2 = getelementptr inbounds i8, ptr %0, i64 -96
  %3 = load ptr, ptr %2, align 8
  %.not = icmp eq ptr %3, null
  br i1 %.not, label %13, label %4

4:                                                ; preds = %1
  %5 = load ptr, ptr %3, align 8
  %.not43 = icmp eq ptr %5, null
  br i1 %.not43, label %13, label %6

6:                                                ; preds = %4
  %7 = getelementptr inbounds i8, ptr %5, i64 40
  %8 = load ptr, ptr %7, align 8
  %.not44 = icmp eq ptr %8, null
  br i1 %.not44, label %13, label %9

9:                                                ; preds = %6
  %10 = getelementptr inbounds i8, ptr %8, i64 8
  %11 = load i32, ptr %10, align 8
  %12 = and i32 %11, -5
  %spec.select = icmp eq i32 %12, 9
  br label %13

13:                                               ; preds = %9, %6, %4, %1
  %14 = phi i1 [ false, %6 ], [ false, %4 ], [ false, %1 ], [ %spec.select, %9 ]
  %15 = getelementptr inbounds i8, ptr %0, i64 16
  %16 = load ptr, ptr %15, align 8
  %17 = getelementptr inbounds i8, ptr %0, i64 -8
  %18 = load ptr, ptr %17, align 8
  %19 = getelementptr inbounds i8, ptr %16, i64 32
  %20 = load i32, ptr %19, align 8
  %21 = getelementptr inbounds i8, ptr %16, i64 28
  %22 = load i32, ptr %21, align 4
  %23 = lshr i32 %22, 11
  %.lobit.i = and i32 %23, 1
  %24 = xor i32 %.lobit.i, 1
  %25 = sub nsw i32 %20, %24
  %26 = sext i32 %25 to i64
  %27 = shl nsw i64 %26, 4
  %28 = add nsw i64 %27, 152
  %29 = tail call noalias ptr @_emalloc(i64 noundef %28) #15
  %30 = getelementptr inbounds i8, ptr %29, i64 88
  tail call void @llvm.memset.p0.i64(ptr noundef nonnull align 1 dereferenceable(88) %29, i8 0, i64 88, i1 false)
  store ptr %18, ptr %30, align 8
  %31 = getelementptr inbounds i8, ptr %29, i64 96
  tail call void @zend_object_std_init(ptr noundef nonnull %31, ptr noundef %16) #14
  tail call void @object_properties_init(ptr noundef nonnull %31, ptr noundef %16) #14
  %32 = getelementptr inbounds i8, ptr %0, i64 -88
  %33 = load ptr, ptr %32, align 8
  br i1 %14, label %34, label %38

34:                                               ; preds = %13
  %35 = load ptr, ptr %33, align 8
  %36 = tail call ptr @xmlCopyDoc(ptr noundef %35, i32 noundef 1) #14
  %37 = tail call i32 @php_libxml_increment_doc_ref(ptr noundef nonnull %29, ptr noundef %36) #14
  br label %46

38:                                               ; preds = %13
  %39 = getelementptr inbounds i8, ptr %29, i64 8
  store ptr %33, ptr %39, align 8
  %.not45 = icmp eq ptr %33, null
  br i1 %.not45, label %46, label %40

40:                                               ; preds = %38
  %41 = getelementptr inbounds i8, ptr %33, i64 24
  %42 = load i32, ptr %41, align 8
  %43 = add nsw i32 %42, 1
  store i32 %43, ptr %41, align 8
  %44 = load ptr, ptr %39, align 8
  %45 = load ptr, ptr %44, align 8
  br label %46

46:                                               ; preds = %38, %40, %34
  %.034 = phi ptr [ %36, %34 ], [ %45, %40 ], [ null, %38 ]
  %47 = getelementptr inbounds i8, ptr %0, i64 -64
  %48 = getelementptr inbounds i8, ptr %0, i64 -48
  %49 = load i32, ptr %48, align 8
  %50 = getelementptr inbounds i8, ptr %29, i64 48
  store i32 %49, ptr %50, align 8
  %51 = load ptr, ptr %47, align 8
  %.not46 = icmp eq ptr %51, null
  br i1 %.not46, label %55, label %52

52:                                               ; preds = %46
  %53 = getelementptr inbounds i8, ptr %29, i64 32
  %54 = tail call noalias ptr @_estrdup(ptr noundef nonnull %51) #14
  store ptr %54, ptr %53, align 8
  br label %55

55:                                               ; preds = %52, %46
  %56 = getelementptr inbounds i8, ptr %0, i64 -56
  %57 = load ptr, ptr %56, align 8
  %.not47 = icmp eq ptr %57, null
  br i1 %.not47, label %61, label %58

58:                                               ; preds = %55
  %59 = tail call noalias ptr @_estrdup(ptr noundef nonnull %57) #14
  %60 = getelementptr inbounds i8, ptr %29, i64 40
  store ptr %59, ptr %60, align 8
  br label %61

61:                                               ; preds = %58, %55
  %62 = getelementptr inbounds i8, ptr %0, i64 -44
  %63 = load i32, ptr %62, align 4
  %64 = getelementptr inbounds i8, ptr %29, i64 52
  store i32 %63, ptr %64, align 4
  %65 = load ptr, ptr %2, align 8
  %.not48 = icmp eq ptr %65, null
  br i1 %.not48, label %72, label %66

66:                                               ; preds = %61
  br i1 %14, label %67, label %69

67:                                               ; preds = %66
  %68 = tail call ptr @xmlDocGetRootElement(ptr noundef %.034) #14
  br label %72

69:                                               ; preds = %66
  %70 = load ptr, ptr %65, align 8
  %71 = tail call ptr @xmlDocCopyNode(ptr noundef %70, ptr noundef %.034, i32 noundef 1) #14
  br label %72

72:                                               ; preds = %67, %69, %61
  %.0 = phi ptr [ %68, %67 ], [ %71, %69 ], [ null, %61 ]
  %73 = tail call i32 @php_libxml_increment_node_ptr(ptr noundef nonnull %29, ptr noundef %.0, ptr noundef null) #14
  ret ptr %31
}